; Function Attrs: mustprogress uwtable
define internal noundef i32 @"_ZNSt17_Function_handlerIFiPKcEZ9read_dratS1_E3$_0E9_M_invokeERKSt9_Any_dataOS1_"(ptr noundef nonnull readonly align 8 captures(none) dereferenceable(16) %0, ptr noundef nonnull readonly align 8 captures(none) dereferenceable(8) %1) #3 align 2 {
  %3 = alloca %class.symbol, align 8
  %.val = load ptr, ptr %0, align 8, !tbaa !114
  %.val2 = load ptr, ptr %1, align 8, !tbaa !116
  call void @llvm.lifetime.start.p0(i64 8, ptr nonnull %3) #22
  call void @_ZN6symbolC1EPKc(ptr noundef nonnull align 8 dereferenceable(8) %3, ptr noundef %.val2)
  %4 = getelementptr inbounds nuw i8, ptr %.val, i64 560
  %5 = call noundef i32 @_ZN14family_manager12mk_family_idERK6symbol(ptr noundef nonnull align 8 dereferenceable(56) %4, ptr noundef nonnull align 8 dereferenceable(8) %3)
  call void @llvm.lifetime.end.p0(i64 8, ptr nonnull %3) #22
  ret i32 %5
}